target datalayout = "e-m:e-p270:32:32-p271:32:32-p272:64:64-i64:64-i128:128-f80:128-n8:16:32:64-S128"
target triple = "x86_64-pc-linux-gnu"

%"class.i18n::phonenumbers::UnicodeText::Repr" = type <{ ptr, i32, i32, i8, i8, [6 x i8] }>
%"class.i18n::phonenumbers::UnicodeText" = type { %"class.i18n::phonenumbers::UnicodeText::Repr" }

; Function Attrs: mustprogress nounwind uwtable
define dso_local noundef zeroext i1 @_ZN4i18n12phonenumberseqERKNS0_11UnicodeTextES3_(ptr noundef nonnull align 8 dereferenceable(24) %0, ptr noundef nonnull align 8 dereferenceable(24) %1) #1 {
  %3 = alloca i1, align 1
  %4 = alloca ptr, align 8
  %5 = alloca ptr, align 8
  store ptr %0, ptr %4, align 8, !tbaa !41
  store ptr %1, ptr %5, align 8, !tbaa !41
  %6 = load ptr, ptr %4, align 8, !tbaa !41
  %7 = load ptr, ptr %5, align 8, !tbaa !41
  %8 = icmp eq ptr %6, %7
  br i1 %8, label %9, label %10

9:                                                ; preds = %2
  store i1 true, ptr %3, align 1
  br label %37

10:                                               ; preds = %2
  %11 = load ptr, ptr %4, align 8, !tbaa !41
  %12 = getelementptr inbounds nuw %"class.i18n::phonenumbers::UnicodeText", ptr %11, i32 0, i32 0
  %13 = getelementptr inbounds nuw %"class.i18n::phonenumbers::UnicodeText::Repr", ptr %12, i32 0, i32 1
  %14 = load i32, ptr %13, align 8, !tbaa !46
  %15 = load ptr, ptr %5, align 8, !tbaa !41
  %16 = getelementptr inbounds nuw %"class.i18n::phonenumbers::UnicodeText", ptr %15, i32 0, i32 0
  %17 = getelementptr inbounds nuw %"class.i18n::phonenumbers::UnicodeText::Repr", ptr %16, i32 0, i32 1
  %18 = load i32, ptr %17, align 8, !tbaa !46
  %19 = icmp ne i32 %14, %18
  br i1 %19, label %20, label %21

20:                                               ; preds = %10
  store i1 false, ptr %3, align 1
  br label %37

21:                                               ; preds = %10
  %22 = load ptr, ptr %4, align 8, !tbaa !41
  %23 = getelementptr inbounds nuw %"class.i18n::phonenumbers::UnicodeText", ptr %22, i32 0, i32 0
  %24 = getelementptr inbounds nuw %"class.i18n::phonenumbers::UnicodeText::Repr", ptr %23, i32 0, i32 0
  %25 = load ptr, ptr %24, align 8, !tbaa !44
  %26 = load ptr, ptr %5, align 8, !tbaa !41
  %27 = getelementptr inbounds nuw %"class.i18n::phonenumbers::UnicodeText", ptr %26, i32 0, i32 0
  %28 = getelementptr inbounds nuw %"class.i18n::phonenumbers::UnicodeText::Repr", ptr %27, i32 0, i32 0
  %29 = load ptr, ptr %28, align 8, !tbaa !44
  %30 = load ptr, ptr %4, align 8, !tbaa !41
  %31 = getelementptr inbounds nuw %"class.i18n::phonenumbers::UnicodeText", ptr %30, i32 0, i32 0
  %32 = getelementptr inbounds nuw %"class.i18n::phonenumbers::UnicodeText::Repr", ptr %31, i32 0, i32 1
  %33 = load i32, ptr %32, align 8, !tbaa !46
  %34 = sext i32 %33 to i64
  %35 = call i32 @memcmp(ptr noundef %25, ptr noundef %29, i64 noundef %34) #20
  %36 = icmp eq i32 %35, 0
  store i1 %36, ptr %3, align 1
  br label %37

37:                                               ; preds = %21, %20, %9
  %38 = load i1, ptr %3, align 1
  ret i1 %38
}