; Function Attrs: mustprogress nofree nounwind willreturn memory(read, inaccessiblemem: none) uwtable
define dso_local noundef zeroext i1 @_ZN4i18n12phonenumberseqERKNS0_11UnicodeTextES3_(ptr noundef nonnull readonly align 8 dereferenceable(24) %0, ptr noundef nonnull readonly align 8 dereferenceable(24) %1) local_unnamed_addr #12 {
  %3 = icmp eq ptr %0, %1
  br i1 %3, label %14, label %4

4:                                                ; preds = %2
  %5 = getelementptr inbounds nuw i8, ptr %0, i64 8
  %6 = load i32, ptr %5, align 8, !tbaa !46
  %7 = getelementptr inbounds nuw i8, ptr %1, i64 8
  %8 = load i32, ptr %7, align 8, !tbaa !46
  %.not = icmp eq i32 %6, %8
  br i1 %.not, label %9, label %14

9:                                                ; preds = %4
  %10 = load ptr, ptr %0, align 8, !tbaa !44
  %11 = load ptr, ptr %1, align 8, !tbaa !44
  %12 = sext i32 %6 to i64
  %bcmp = tail call i32 @bcmp(ptr %10, ptr %11, i64 %12)
  %13 = icmp eq i32 %bcmp, 0
  br label %14

14:                                               ; preds = %4, %2, %9
  %.0 = phi i1 [ %13, %9 ], [ true, %2 ], [ false, %4 ]
  ret i1 %.0
}